; Function Attrs: mustprogress nounwind uwtable
define hidden void @_ZN26SuperWordVTransformBuilder19set_req_with_scalarEP4NodeP14VTransformNodeR9VectorSeti(ptr nocapture noundef nonnull align 8 dereferenceable(2088) %0, ptr nocapture noundef readonly %1, ptr noundef %2, ptr noundef nonnull align 8 dereferenceable(32) %3, i32 noundef %4) local_unnamed_addr #0 align 2 {
  %6 = getelementptr inbounds i8, ptr %1, i64 8
  %7 = load ptr, ptr %6, align 8
  %8 = zext i32 %4 to i64
  %9 = getelementptr inbounds ptr, ptr %7, i64 %8
  %10 = load ptr, ptr %9, align 8
  %11 = tail call noundef ptr @_ZN26SuperWordVTransformBuilder34get_vtnode_or_wrap_as_input_scalarEP4Node(ptr noundef nonnull align 8 dereferenceable(2088) %0, ptr noundef %10)
  %12 = getelementptr inbounds i8, ptr %2, i64 24
  %13 = load ptr, ptr %12, align 8
  %14 = sext i32 %4 to i64
  %15 = getelementptr inbounds ptr, ptr %13, i64 %14
  store ptr %11, ptr %15, align 8
  %16 = getelementptr inbounds i8, ptr %11, i64 40
  %17 = load i32, ptr %16, align 8
  %18 = getelementptr inbounds i8, ptr %11, i64 44
  %19 = load i32, ptr %18, align 4
  %20 = icmp eq i32 %17, %19
  br i1 %20, label %21, label %_ZN14VTransformNode7set_reqEjPS_.exit

21:                                               ; preds = %5
  %22 = add nsw i32 %17, 1
  %23 = icmp sgt i32 %17, -1
  %24 = xor i32 %17, -2147483648
  %25 = and i32 %24, %22
  %26 = icmp eq i32 %25, 0
  %27 = and i1 %23, %26
  %28 = tail call range(i32 0, 33) i32 @llvm.ctlz.i32(i32 %22, i1 true)
  %29 = sub nuw nsw i32 32, %28
  %30 = shl nuw i32 1, %29
  %.0.i.i.i.i.i.i.i = select i1 %27, i32 %22, i32 %30
  tail call void @_ZN26GrowableArrayWithAllocatorIP14VTransformNode13GrowableArrayIS1_EE9expand_toEi(ptr noundef nonnull align 8 dereferenceable(16) %16, i32 noundef %.0.i.i.i.i.i.i.i)
  %.pre.i.i.i.i = load i32, ptr %16, align 8
  br label %_ZN14VTransformNode7set_reqEjPS_.exit

_ZN14VTransformNode7set_reqEjPS_.exit:            ; preds = %5, %21
  %31 = phi i32 [ %.pre.i.i.i.i, %21 ], [ %17, %5 ]
  %32 = add nsw i32 %31, 1
  store i32 %32, ptr %16, align 8
  %33 = getelementptr inbounds i8, ptr %11, i64 48
  %34 = load ptr, ptr %33, align 8
  %35 = sext i32 %31 to i64
  %36 = getelementptr inbounds ptr, ptr %34, i64 %35
  store ptr %2, ptr %36, align 8
  %37 = getelementptr inbounds i8, ptr %11, i64 8
  %38 = load i32, ptr %37, align 8
  %39 = lshr i32 %38, 5
  %40 = load i32, ptr %3, align 8
  %.not.i = icmp ult i32 %39, %40
  br i1 %.not.i, label %_ZN9VectorSet3setEj.exit, label %41

41:                                               ; preds = %_ZN14VTransformNode7set_reqEjPS_.exit
  tail call void @_ZN9VectorSet4growEj(ptr noundef nonnull align 8 dereferenceable(32) %3, i32 noundef %39) #6
  br label %_ZN9VectorSet3setEj.exit

_ZN9VectorSet3setEj.exit:                         ; preds = %_ZN14VTransformNode7set_reqEjPS_.exit, %41
  %42 = and i32 %38, 31
  %43 = shl nuw i32 1, %42
  %44 = getelementptr inbounds i8, ptr %3, i64 8
  %45 = load ptr, ptr %44, align 8
  %46 = zext nneg i32 %39 to i64
  %47 = getelementptr inbounds i32, ptr %45, i64 %46
  %48 = load i32, ptr %47, align 4
  %49 = or i32 %48, %43
  store i32 %49, ptr %47, align 4
  ret void
}